target datalayout = "e-m:e-p270:32:32-p271:32:32-p272:64:64-i64:64-i128:128-f80:128-n8:16:32:64-S128"
target triple = "x86_64-pc-linux-gnu"

%struct.AVFormatContext = type { ptr, ptr, ptr, ptr, ptr, i32, i32, ptr, i32, ptr, i32, ptr, ptr, i64, i64, i64, i32, i32, i32, i64, i64, ptr, i32, i32, ptr, i32, i32, i32, i32, ptr, i64, i32, i32, %struct.AVIOInterruptCB, i32, i32, i32, i32, i64, i32, i32, i32, i32, i32, i32, i32, i32, i32, i32, i32, i32, i64, i32, i32, i32, i32, i32, ptr, ptr, ptr, ptr, i32, ptr, ptr, ptr, ptr, i32, ptr, ptr, i64, ptr, ptr, ptr, i64 }
%struct.AVIOInterruptCB = type { ptr, ptr }
%struct.AVPacket = type { ptr, i64, i64, ptr, i32, i32, i32, ptr, i32, i64, i64, ptr, ptr, %struct.AVRational }
%struct.AVRational = type { i32, i32 }
%struct.PMPContext = type { i32, i32, i32, i32, ptr, i32 }

@.str.9 = private unnamed_addr constant [19 x i8] c"No audio packets.\0A\00", align 1
@.str.10 = private unnamed_addr constant [35 x i8] c"Cannot (re)allocate packet buffer\0A\00", align 1

; Function Attrs: nounwind uwtable
define internal i32 @pmp_packet(ptr noundef %0, ptr noundef %1) #0 {
  %3 = alloca i32, align 4
  %4 = alloca ptr, align 8
  %5 = alloca ptr, align 8
  %6 = alloca ptr, align 8
  %7 = alloca ptr, align 8
  %8 = alloca i32, align 4
  %9 = alloca i32, align 4
  %10 = alloca i32, align 4
  %11 = alloca i32, align 4
  store ptr %0, ptr %4, align 8, !tbaa !14
  store ptr %1, ptr %5, align 8, !tbaa !61
  call void @llvm.lifetime.start.p0(i64 8, ptr %6) #4
  %12 = load ptr, ptr %4, align 8, !tbaa !14
  %13 = getelementptr inbounds nuw %struct.AVFormatContext, ptr %12, i32 0, i32 3
  %14 = load ptr, ptr %13, align 8, !tbaa !16
  store ptr %14, ptr %6, align 8, !tbaa !31
  call void @llvm.lifetime.start.p0(i64 8, ptr %7) #4
  %15 = load ptr, ptr %4, align 8, !tbaa !14
  %16 = getelementptr inbounds nuw %struct.AVFormatContext, ptr %15, i32 0, i32 4
  %17 = load ptr, ptr %16, align 8, !tbaa !32
  store ptr %17, ptr %7, align 8, !tbaa !33
  call void @llvm.lifetime.start.p0(i64 4, ptr %8) #4
  store i32 0, ptr %8, align 4, !tbaa !34
  call void @llvm.lifetime.start.p0(i64 4, ptr %9) #4
  %18 = load ptr, ptr %7, align 8, !tbaa !33
  %19 = call i32 @avio_feof(ptr noundef %18)
  %20 = icmp ne i32 %19, 0
  br i1 %20, label %21, label %22

21:                                               ; preds = %2
  store i32 -541478725, ptr %3, align 4
  store i32 1, ptr %10, align 4
  br label %133

22:                                               ; preds = %2
  %23 = load ptr, ptr %6, align 8, !tbaa !31
  %24 = getelementptr inbounds nuw %struct.PMPContext, ptr %23, i32 0, i32 0
  %25 = load i32, ptr %24, align 8, !tbaa !63
  %26 = icmp eq i32 %25, 0
  br i1 %26, label %27, label %86

27:                                               ; preds = %22
  call void @llvm.lifetime.start.p0(i64 4, ptr %11) #4
  %28 = load ptr, ptr %7, align 8, !tbaa !33
  %29 = call i32 @avio_r8(ptr noundef %28)
  %30 = load ptr, ptr %6, align 8, !tbaa !31
  %31 = getelementptr inbounds nuw %struct.PMPContext, ptr %30, i32 0, i32 2
  store i32 %29, ptr %31, align 8, !tbaa !64
  %32 = load ptr, ptr %6, align 8, !tbaa !31
  %33 = getelementptr inbounds nuw %struct.PMPContext, ptr %32, i32 0, i32 2
  %34 = load i32, ptr %33, align 8, !tbaa !64
  %35 = icmp ne i32 %34, 0
  br i1 %35, label %38, label %36

36:                                               ; preds = %27
  %37 = load ptr, ptr %4, align 8, !tbaa !14
  call void (ptr, i32, ptr, ...) @av_log(ptr noundef %37, i32 noundef 16, ptr noundef @.str.9)
  store i32 -1094995529, ptr %3, align 4
  store i32 1, ptr %10, align 4
  br label %83

38:                                               ; preds = %27
  %39 = load ptr, ptr %6, align 8, !tbaa !31
  %40 = getelementptr inbounds nuw %struct.PMPContext, ptr %39, i32 0, i32 1
  %41 = load i32, ptr %40, align 4, !tbaa !53
  %42 = sub nsw i32 %41, 1
  %43 = load ptr, ptr %6, align 8, !tbaa !31
  %44 = getelementptr inbounds nuw %struct.PMPContext, ptr %43, i32 0, i32 2
  %45 = load i32, ptr %44, align 8, !tbaa !64
  %46 = mul nsw i32 %42, %45
  %47 = add nsw i32 %46, 1
  store i32 %47, ptr %11, align 4, !tbaa !34
  %48 = load ptr, ptr %7, align 8, !tbaa !33
  %49 = call i64 @avio_skip(ptr noundef %48, i64 noundef 8)
  %50 = load ptr, ptr %6, align 8, !tbaa !31
  %51 = getelementptr inbounds nuw %struct.PMPContext, ptr %50, i32 0, i32 3
  store i32 0, ptr %51, align 4, !tbaa !65
  %52 = load ptr, ptr %6, align 8, !tbaa !31
  %53 = getelementptr inbounds nuw %struct.PMPContext, ptr %52, i32 0, i32 4
  %54 = load ptr, ptr %6, align 8, !tbaa !31
  %55 = getelementptr inbounds nuw %struct.PMPContext, ptr %54, i32 0, i32 5
  %56 = load i32, ptr %11, align 4, !tbaa !34
  %57 = sext i32 %56 to i64
  %58 = mul i64 %57, 4
  call void @av_fast_malloc(ptr noundef %53, ptr noundef %55, i64 noundef %58)
  %59 = load ptr, ptr %6, align 8, !tbaa !31
  %60 = getelementptr inbounds nuw %struct.PMPContext, ptr %59, i32 0, i32 5
  %61 = load i32, ptr %60, align 8, !tbaa !66
  %62 = icmp ne i32 %61, 0
  br i1 %62, label %65, label %63

63:                                               ; preds = %38
  %64 = load ptr, ptr %4, align 8, !tbaa !14
  call void (ptr, i32, ptr, ...) @av_log(ptr noundef %64, i32 noundef 16, ptr noundef @.str.10)
  store i32 -12, ptr %3, align 4
  store i32 1, ptr %10, align 4
  br label %83

65:                                               ; preds = %38
  store i32 0, ptr %9, align 4, !tbaa !34
  br label %66

66:                                               ; preds = %79, %65
  %67 = load i32, ptr %9, align 4, !tbaa !34
  %68 = load i32, ptr %11, align 4, !tbaa !34
  %69 = icmp slt i32 %67, %68
  br i1 %69, label %70, label %82

70:                                               ; preds = %66
  %71 = load ptr, ptr %7, align 8, !tbaa !33
  %72 = call i32 @avio_rl32(ptr noundef %71)
  %73 = load ptr, ptr %6, align 8, !tbaa !31
  %74 = getelementptr inbounds nuw %struct.PMPContext, ptr %73, i32 0, i32 4
  %75 = load ptr, ptr %74, align 8, !tbaa !67
  %76 = load i32, ptr %9, align 4, !tbaa !34
  %77 = sext i32 %76 to i64
  %78 = getelementptr inbounds i32, ptr %75, i64 %77
  store i32 %72, ptr %78, align 4, !tbaa !34
  br label %79

79:                                               ; preds = %70
  %80 = load i32, ptr %9, align 4, !tbaa !34
  %81 = add nsw i32 %80, 1
  store i32 %81, ptr %9, align 4, !tbaa !34
  br label %66, !llvm.loop !68

82:                                               ; preds = %66
  store i32 0, ptr %10, align 4
  br label %83

83:                                               ; preds = %82, %63, %36
  call void @llvm.lifetime.end.p0(i64 4, ptr %11) #4
  %84 = load i32, ptr %10, align 4
  switch i32 %84, label %133 [
    i32 0, label %85
  ]

85:                                               ; preds = %83
  br label %86

86:                                               ; preds = %85, %22
  %87 = load ptr, ptr %7, align 8, !tbaa !33
  %88 = load ptr, ptr %5, align 8, !tbaa !61
  %89 = load ptr, ptr %6, align 8, !tbaa !31
  %90 = getelementptr inbounds nuw %struct.PMPContext, ptr %89, i32 0, i32 4
  %91 = load ptr, ptr %90, align 8, !tbaa !67
  %92 = load ptr, ptr %6, align 8, !tbaa !31
  %93 = getelementptr inbounds nuw %struct.PMPContext, ptr %92, i32 0, i32 3
  %94 = load i32, ptr %93, align 4, !tbaa !65
  %95 = sext i32 %94 to i64
  %96 = getelementptr inbounds i32, ptr %91, i64 %95
  %97 = load i32, ptr %96, align 4, !tbaa !34
  %98 = call i32 @av_get_packet(ptr noundef %87, ptr noundef %88, i32 noundef %97)
  store i32 %98, ptr %8, align 4, !tbaa !34
  %99 = load i32, ptr %8, align 4, !tbaa !34
  %100 = icmp sge i32 %99, 0
  br i1 %100, label %101, label %107

101:                                              ; preds = %86
  store i32 0, ptr %8, align 4, !tbaa !34
  %102 = load ptr, ptr %6, align 8, !tbaa !31
  %103 = getelementptr inbounds nuw %struct.PMPContext, ptr %102, i32 0, i32 0
  %104 = load i32, ptr %103, align 8, !tbaa !63
  %105 = load ptr, ptr %5, align 8, !tbaa !61
  %106 = getelementptr inbounds nuw %struct.AVPacket, ptr %105, i32 0, i32 5
  store i32 %104, ptr %106, align 4, !tbaa !69
  br label %107

107:                                              ; preds = %101, %86
  %108 = load ptr, ptr %6, align 8, !tbaa !31
  %109 = getelementptr inbounds nuw %struct.PMPContext, ptr %108, i32 0, i32 3
  %110 = load i32, ptr %109, align 4, !tbaa !65
  %111 = load ptr, ptr %6, align 8, !tbaa !31
  %112 = getelementptr inbounds nuw %struct.PMPContext, ptr %111, i32 0, i32 2
  %113 = load i32, ptr %112, align 8, !tbaa !64
  %114 = srem i32 %110, %113
  %115 = icmp eq i32 %114, 0
  br i1 %115, label %116, label %127

116:                                              ; preds = %107
  %117 = load ptr, ptr %6, align 8, !tbaa !31
  %118 = getelementptr inbounds nuw %struct.PMPContext, ptr %117, i32 0, i32 0
  %119 = load i32, ptr %118, align 8, !tbaa !63
  %120 = add nsw i32 %119, 1
  %121 = load ptr, ptr %6, align 8, !tbaa !31
  %122 = getelementptr inbounds nuw %struct.PMPContext, ptr %121, i32 0, i32 1
  %123 = load i32, ptr %122, align 4, !tbaa !53
  %124 = srem i32 %120, %123
  %125 = load ptr, ptr %6, align 8, !tbaa !31
  %126 = getelementptr inbounds nuw %struct.PMPContext, ptr %125, i32 0, i32 0
  store i32 %124, ptr %126, align 8, !tbaa !63
  br label %127

127:                                              ; preds = %116, %107
  %128 = load ptr, ptr %6, align 8, !tbaa !31
  %129 = getelementptr inbounds nuw %struct.PMPContext, ptr %128, i32 0, i32 3
  %130 = load i32, ptr %129, align 4, !tbaa !65
  %131 = add nsw i32 %130, 1
  store i32 %131, ptr %129, align 4, !tbaa !65
  %132 = load i32, ptr %8, align 4, !tbaa !34
  store i32 %132, ptr %3, align 4
  store i32 1, ptr %10, align 4
  br label %133

133:                                              ; preds = %127, %83, %21
  call void @llvm.lifetime.end.p0(i64 4, ptr %9) #4
  call void @llvm.lifetime.end.p0(i64 4, ptr %8) #4
  call void @llvm.lifetime.end.p0(i64 8, ptr %7) #4
  call void @llvm.lifetime.end.p0(i64 8, ptr %6) #4
  %134 = load i32, ptr %3, align 4
  ret i32 %134
}