; Function Attrs: nounwind uwtable
define internal range(i32 -2147483648, 1) i32 @pmp_packet(ptr noundef %0, ptr noundef %1) #1 {
  %3 = getelementptr inbounds nuw i8, ptr %0, i64 24
  %4 = load ptr, ptr %3, align 8, !tbaa !12
  %5 = getelementptr inbounds nuw i8, ptr %0, i64 32
  %6 = load ptr, ptr %5, align 8, !tbaa !27
  %7 = tail call i32 @avio_feof(ptr noundef %6) #4
  %.not = icmp eq i32 %7, 0
  br i1 %.not, label %8, label %.thread

8:                                                ; preds = %2
  %9 = load i32, ptr %4, align 8, !tbaa !51
  %10 = icmp eq i32 %9, 0
  br i1 %10, label %11, label %.loopexit

11:                                               ; preds = %8
  %12 = tail call i32 @avio_r8(ptr noundef %6) #4
  %13 = getelementptr inbounds nuw i8, ptr %4, i64 8
  store i32 %12, ptr %13, align 8, !tbaa !52
  %.not43 = icmp eq i32 %12, 0
  br i1 %.not43, label %14, label %15

14:                                               ; preds = %11
  tail call void (ptr, i32, ptr, ...) @av_log(ptr noundef nonnull %0, i32 noundef 16, ptr noundef nonnull @.str.9) #4
  br label %.thread

15:                                               ; preds = %11
  %16 = getelementptr inbounds nuw i8, ptr %4, i64 4
  %17 = load i32, ptr %16, align 4, !tbaa !43
  %18 = add i32 %17, -1
  %19 = mul i32 %18, %12
  %20 = add i32 %19, 1
  %21 = tail call i64 @avio_skip(ptr noundef %6, i64 noundef 8) #4
  %22 = getelementptr inbounds nuw i8, ptr %4, i64 12
  store i32 0, ptr %22, align 4, !tbaa !53
  %23 = getelementptr inbounds nuw i8, ptr %4, i64 16
  %24 = getelementptr inbounds nuw i8, ptr %4, i64 24
  %25 = sext i32 %20 to i64
  %26 = shl nsw i64 %25, 2
  tail call void @av_fast_malloc(ptr noundef nonnull %23, ptr noundef nonnull %24, i64 noundef %26) #4
  %27 = load i32, ptr %24, align 8, !tbaa !54
  %.not44 = icmp eq i32 %27, 0
  br i1 %.not44, label %28, label %.preheader

.preheader:                                       ; preds = %15
  %.not4548 = icmp slt i32 %19, 0
  br i1 %.not4548, label %.loopexit, label %.lr.ph.preheader

.lr.ph.preheader:                                 ; preds = %.preheader
  %wide.trip.count = zext i32 %20 to i64
  br label %.lr.ph

28:                                               ; preds = %15
  tail call void (ptr, i32, ptr, ...) @av_log(ptr noundef nonnull %0, i32 noundef 16, ptr noundef nonnull @.str.10) #4
  br label %.thread

.lr.ph:                                           ; preds = %.lr.ph.preheader, %.lr.ph
  %indvars.iv = phi i64 [ 0, %.lr.ph.preheader ], [ %indvars.iv.next, %.lr.ph ]
  %29 = tail call i32 @avio_rl32(ptr noundef %6) #4
  %30 = load ptr, ptr %23, align 8, !tbaa !55
  %31 = getelementptr inbounds nuw i32, ptr %30, i64 %indvars.iv
  store i32 %29, ptr %31, align 4, !tbaa !56
  %indvars.iv.next = add nuw nsw i64 %indvars.iv, 1
  %exitcond.not = icmp eq i64 %indvars.iv.next, %wide.trip.count
  br i1 %exitcond.not, label %.loopexit, label %.lr.ph, !llvm.loop !57

.loopexit:                                        ; preds = %.lr.ph, %.preheader, %8
  %32 = getelementptr inbounds nuw i8, ptr %4, i64 16
  %33 = load ptr, ptr %32, align 8, !tbaa !55
  %34 = getelementptr inbounds nuw i8, ptr %4, i64 12
  %35 = load i32, ptr %34, align 4, !tbaa !53
  %36 = sext i32 %35 to i64
  %37 = getelementptr inbounds i32, ptr %33, i64 %36
  %38 = load i32, ptr %37, align 4, !tbaa !56
  %39 = tail call i32 @av_get_packet(ptr noundef %6, ptr noundef %1, i32 noundef %38) #4
  %40 = icmp sgt i32 %39, -1
  br i1 %40, label %41, label %44

41:                                               ; preds = %.loopexit
  %42 = load i32, ptr %4, align 8, !tbaa !51
  %43 = getelementptr inbounds nuw i8, ptr %1, i64 36
  store i32 %42, ptr %43, align 4, !tbaa !58
  br label %44

44:                                               ; preds = %41, %.loopexit
  %.040 = phi i32 [ 0, %41 ], [ %39, %.loopexit ]
  %45 = load i32, ptr %34, align 4, !tbaa !53
  %46 = getelementptr inbounds nuw i8, ptr %4, i64 8
  %47 = load i32, ptr %46, align 8, !tbaa !52
  %48 = srem i32 %45, %47
  %49 = icmp eq i32 %48, 0
  br i1 %49, label %50, label %56

50:                                               ; preds = %44
  %51 = load i32, ptr %4, align 8, !tbaa !51
  %52 = add nsw i32 %51, 1
  %53 = getelementptr inbounds nuw i8, ptr %4, i64 4
  %54 = load i32, ptr %53, align 4, !tbaa !43
  %55 = srem i32 %52, %54
  store i32 %55, ptr %4, align 8, !tbaa !51
  br label %56

56:                                               ; preds = %50, %44
  %57 = add nsw i32 %45, 1
  store i32 %57, ptr %34, align 4, !tbaa !53
  br label %.thread

.thread:                                          ; preds = %14, %28, %2, %56
  %.0 = phi i32 [ %.040, %56 ], [ -541478725, %2 ], [ -1094995529, %14 ], [ -12, %28 ]
  ret i32 %.0
}